; Function Attrs: nounwind uwtable
define internal range(i32 0, 7) i32 @ft_raster1_transform(ptr noundef readonly captures(none) %0, ptr noundef %1, ptr noundef %2, ptr noundef readonly %3) #0 {
  %5 = getelementptr inbounds nuw i8, ptr %1, i64 144
  %6 = load i32, ptr %5, align 8, !tbaa !62
  %7 = getelementptr inbounds nuw i8, ptr %0, i64 32
  %8 = load i32, ptr %7, align 8, !tbaa !71
  %.not = icmp eq i32 %6, %8
  br i1 %.not, label %9, label %18

9:                                                ; preds = %4
  %.not11 = icmp eq ptr %2, null
  br i1 %.not11, label %12, label %10

10:                                               ; preds = %9
  %11 = getelementptr inbounds nuw i8, ptr %1, i64 200
  tail call void @FT_Outline_Transform(ptr noundef nonnull %11, ptr noundef nonnull %2) #10
  br label %12

12:                                               ; preds = %10, %9
  %.not12 = icmp eq ptr %3, null
  br i1 %.not12, label %18, label %13

13:                                               ; preds = %12
  %14 = getelementptr inbounds nuw i8, ptr %1, i64 200
  %15 = load i64, ptr %3, align 8, !tbaa !79
  %16 = getelementptr inbounds nuw i8, ptr %3, i64 8
  %17 = load i64, ptr %16, align 8, !tbaa !80
  tail call void @FT_Outline_Translate(ptr noundef nonnull %14, i64 noundef %15, i64 noundef %17) #10
  br label %18

18:                                               ; preds = %4, %12, %13
  %.0 = phi i32 [ 0, %13 ], [ 0, %12 ], [ 6, %4 ]
  ret i32 %.0
}